target datalayout = "e-m:e-p270:32:32-p271:32:32-p272:64:64-i64:64-i128:128-f80:128-n8:16:32:64-S128"
target triple = "x86_64-pc-linux-gnu"

%struct.evp_pkey_ctx_st = type { i32, ptr, ptr, ptr, ptr, %union.anon, %struct.anon.4, ptr, ptr, ptr, i32, i32, ptr, ptr, ptr, ptr, ptr, i8, ptr }
%union.anon = type { %struct.anon.0 }
%struct.anon.0 = type { ptr, ptr }
%struct.anon.4 = type { ptr, ptr, i64, i8 }

@.str = private unnamed_addr constant [36 x i8] c"../openssl/crypto/evp/pmeth_check.c\00", align 1
@__func__.EVP_PKEY_private_check = private unnamed_addr constant [23 x i8] c"EVP_PKEY_private_check\00", align 1
@__func__.try_provided_check = private unnamed_addr constant [19 x i8] c"try_provided_check\00", align 1

; Function Attrs: nounwind uwtable
define internal i32 @try_provided_check(ptr noundef %0, i32 noundef %1, i32 noundef %2) #0 {
  %4 = alloca i32, align 4
  %5 = alloca ptr, align 8
  %6 = alloca i32, align 4
  %7 = alloca i32, align 4
  %8 = alloca ptr, align 8
  %9 = alloca ptr, align 8
  %10 = alloca i32, align 4
  store ptr %0, ptr %5, align 8, !tbaa !3
  store i32 %1, ptr %6, align 4, !tbaa !8
  store i32 %2, ptr %7, align 4, !tbaa !8
  call void @llvm.lifetime.start.p0(i64 8, ptr %8) #3
  call void @llvm.lifetime.start.p0(i64 8, ptr %9) #3
  %11 = load ptr, ptr %5, align 8, !tbaa !3
  %12 = getelementptr inbounds nuw %struct.evp_pkey_ctx_st, ptr %11, i32 0, i32 4
  %13 = load ptr, ptr %12, align 8, !tbaa !40
  %14 = icmp eq ptr %13, null
  br i1 %14, label %15, label %16

15:                                               ; preds = %3
  store i32 -1, ptr %4, align 4
  store i32 1, ptr %10, align 4
  br label %39

16:                                               ; preds = %3
  %17 = load ptr, ptr %5, align 8, !tbaa !3
  %18 = getelementptr inbounds nuw %struct.evp_pkey_ctx_st, ptr %17, i32 0, i32 4
  %19 = load ptr, ptr %18, align 8, !tbaa !40
  store ptr %19, ptr %8, align 8, !tbaa !41
  %20 = load ptr, ptr %5, align 8, !tbaa !3
  %21 = getelementptr inbounds nuw %struct.evp_pkey_ctx_st, ptr %20, i32 0, i32 14
  %22 = load ptr, ptr %21, align 8, !tbaa !10
  %23 = load ptr, ptr %5, align 8, !tbaa !3
  %24 = getelementptr inbounds nuw %struct.evp_pkey_ctx_st, ptr %23, i32 0, i32 1
  %25 = load ptr, ptr %24, align 8, !tbaa !42
  %26 = load ptr, ptr %5, align 8, !tbaa !3
  %27 = getelementptr inbounds nuw %struct.evp_pkey_ctx_st, ptr %26, i32 0, i32 2
  %28 = load ptr, ptr %27, align 8, !tbaa !43
  %29 = call ptr @evp_pkey_export_to_provider(ptr noundef %22, ptr noundef %25, ptr noundef %8, ptr noundef %28)
  store ptr %29, ptr %9, align 8, !tbaa !44
  %30 = load ptr, ptr %9, align 8, !tbaa !44
  %31 = icmp eq ptr %30, null
  br i1 %31, label %32, label %33

32:                                               ; preds = %16
  call void @ERR_new()
  call void @ERR_set_debug(ptr noundef @.str, i32 noundef 40, ptr noundef @__func__.try_provided_check)
  call void (i32, i32, ptr, ...) @ERR_set_error(i32 noundef 6, i32 noundef 134, ptr noundef null)
  store i32 0, ptr %4, align 4
  store i32 1, ptr %10, align 4
  br label %39

33:                                               ; preds = %16
  %34 = load ptr, ptr %8, align 8, !tbaa !41
  %35 = load ptr, ptr %9, align 8, !tbaa !44
  %36 = load i32, ptr %6, align 4, !tbaa !8
  %37 = load i32, ptr %7, align 4, !tbaa !8
  %38 = call i32 @evp_keymgmt_validate(ptr noundef %34, ptr noundef %35, i32 noundef %36, i32 noundef %37)
  store i32 %38, ptr %4, align 4
  store i32 1, ptr %10, align 4
  br label %39

39:                                               ; preds = %33, %32, %15
  call void @llvm.lifetime.end.p0(i64 8, ptr %9) #3
  call void @llvm.lifetime.end.p0(i64 8, ptr %8) #3
  %40 = load i32, ptr %4, align 4
  ret i32 %40
}

; Function Attrs: nounwind uwtable
define i32 @EVP_PKEY_private_check(ptr noundef %0) #0 {
  %2 = alloca i32, align 4
  %3 = alloca ptr, align 8
  %4 = alloca ptr, align 8
  %5 = alloca i32, align 4
  %6 = alloca i32, align 4
  store ptr %0, ptr %3, align 8, !tbaa !3
  call void @llvm.lifetime.start.p0(i64 8, ptr %4) #3
  %7 = load ptr, ptr %3, align 8, !tbaa !3
  %8 = getelementptr inbounds nuw %struct.evp_pkey_ctx_st, ptr %7, i32 0, i32 14
  %9 = load ptr, ptr %8, align 8, !tbaa !10
  store ptr %9, ptr %4, align 8, !tbaa !22
  call void @llvm.lifetime.start.p0(i64 4, ptr %5) #3
  %10 = load ptr, ptr %4, align 8, !tbaa !22
  %11 = icmp eq ptr %10, null
  br i1 %11, label %12, label %13

12:                                               ; preds = %1
  call void @ERR_new()
  call void @ERR_set_debug(ptr noundef @.str, i32 noundef 142, ptr noundef @__func__.EVP_PKEY_private_check)
  call void (i32, i32, ptr, ...) @ERR_set_error(i32 noundef 6, i32 noundef 154, ptr noundef null)
  store i32 0, ptr %2, align 4
  store i32 1, ptr %6, align 4
  br label %20

13:                                               ; preds = %1
  %14 = load ptr, ptr %3, align 8, !tbaa !3
  %15 = call i32 @try_provided_check(ptr noundef %14, i32 noundef 1, i32 noundef 0)
  store i32 %15, ptr %5, align 4, !tbaa !8
  %16 = icmp ne i32 %15, -1
  br i1 %16, label %17, label %19

17:                                               ; preds = %13
  %18 = load i32, ptr %5, align 4, !tbaa !8
  store i32 %18, ptr %2, align 4
  store i32 1, ptr %6, align 4
  br label %20

19:                                               ; preds = %13
  call void @ERR_new()
  call void @ERR_set_debug(ptr noundef @.str, i32 noundef 151, ptr noundef @__func__.EVP_PKEY_private_check)
  call void (i32, i32, ptr, ...) @ERR_set_error(i32 noundef 6, i32 noundef 150, ptr noundef null)
  store i32 -2, ptr %2, align 4
  store i32 1, ptr %6, align 4
  br label %20

20:                                               ; preds = %19, %17, %12
  call void @llvm.lifetime.end.p0(i64 4, ptr %5) #3
  call void @llvm.lifetime.end.p0(i64 8, ptr %4) #3
  %21 = load i32, ptr %2, align 4
  ret i32 %21
}