; Function Attrs: nounwind uwtable
define range(i32 0, -1) i32 @EVP_PKEY_private_check(ptr noundef readonly captures(none) %0) local_unnamed_addr #0 {
  %2 = alloca ptr, align 8
  %3 = getelementptr inbounds nuw i8, ptr %0, i64 136
  %4 = load ptr, ptr %3, align 8, !tbaa !3
  %5 = icmp eq ptr %4, null
  br i1 %5, label %6, label %7

6:                                                ; preds = %1
  tail call void @ERR_new() #3
  tail call void @ERR_set_debug(ptr noundef nonnull @.str, i32 noundef 142, ptr noundef nonnull @__func__.EVP_PKEY_private_check) #3
  tail call void (i32, i32, ptr, ...) @ERR_set_error(i32 noundef 6, i32 noundef 154, ptr noundef null) #3
  br label %21

7:                                                ; preds = %1
  call void @llvm.lifetime.start.p0(i64 8, ptr nonnull %2) #3
  %8 = getelementptr inbounds nuw i8, ptr %0, i64 32
  %9 = load ptr, ptr %8, align 8, !tbaa !19
  %10 = icmp eq ptr %9, null
  br i1 %10, label %try_provided_check.exit.thread, label %11

try_provided_check.exit.thread:                   ; preds = %7
  call void @llvm.lifetime.end.p0(i64 8, ptr nonnull %2) #3
  br label %20

11:                                               ; preds = %7
  store ptr %9, ptr %2, align 8, !tbaa !20
  %12 = getelementptr inbounds nuw i8, ptr %0, i64 8
  %13 = load ptr, ptr %12, align 8, !tbaa !21
  %14 = getelementptr inbounds nuw i8, ptr %0, i64 16
  %15 = load ptr, ptr %14, align 8, !tbaa !22
  %16 = call ptr @evp_pkey_export_to_provider(ptr noundef nonnull %4, ptr noundef %13, ptr noundef nonnull %2, ptr noundef %15) #3
  %17 = icmp eq ptr %16, null
  br i1 %17, label %try_provided_check.exit.thread7, label %try_provided_check.exit

try_provided_check.exit.thread7:                  ; preds = %11
  call void @ERR_new() #3
  call void @ERR_set_debug(ptr noundef nonnull @.str, i32 noundef 40, ptr noundef nonnull @__func__.try_provided_check) #3
  call void (i32, i32, ptr, ...) @ERR_set_error(i32 noundef 6, i32 noundef 134, ptr noundef null) #3
  call void @llvm.lifetime.end.p0(i64 8, ptr nonnull %2) #3
  br label %21

try_provided_check.exit:                          ; preds = %11
  %18 = load ptr, ptr %2, align 8, !tbaa !20
  %19 = call i32 @evp_keymgmt_validate(ptr noundef %18, ptr noundef nonnull %16, i32 noundef 1, i32 noundef 0) #3
  call void @llvm.lifetime.end.p0(i64 8, ptr nonnull %2) #3
  %.not = icmp eq i32 %19, -1
  br i1 %.not, label %20, label %21

20:                                               ; preds = %try_provided_check.exit.thread, %try_provided_check.exit
  call void @ERR_new() #3
  call void @ERR_set_debug(ptr noundef nonnull @.str, i32 noundef 151, ptr noundef nonnull @__func__.EVP_PKEY_private_check) #3
  call void (i32, i32, ptr, ...) @ERR_set_error(i32 noundef 6, i32 noundef 150, ptr noundef null) #3
  br label %21

21:                                               ; preds = %try_provided_check.exit.thread7, %try_provided_check.exit, %20, %6
  %.0 = phi i32 [ 0, %6 ], [ -2, %20 ], [ %19, %try_provided_check.exit ], [ 0, %try_provided_check.exit.thread7 ]
  ret i32 %.0
}